target datalayout = "e-m:e-p270:32:32-p271:32:32-p272:64:64-i64:64-i128:128-f80:128-n8:16:32:64-S128"
target triple = "x86_64-pc-linux-gnu"

%"struct.std::__detail::_List_node_header" = type { %"struct.std::__detail::_List_node_base", i64 }
%"struct.std::__detail::_List_node_base" = type { ptr, ptr }
%class.RichParameterList = type { %"class.std::__cxx11::list.33" }
%"class.std::__cxx11::list.33" = type { %"class.std::__cxx11::_List_base.34" }
%"class.std::__cxx11::_List_base.34" = type { %"struct.std::__cxx11::_List_base<RichParameter *, std::allocator<RichParameter *>>::_List_impl" }
%"struct.std::__cxx11::_List_base<RichParameter *, std::allocator<RichParameter *>>::_List_impl" = type { %"struct.std::__detail::_List_node_header" }

; Function Attrs: mustprogress uwtable
define void @_ZN13FilterFractal17initParameterListEPK7QActionRK12MeshDocument(ptr dead_on_unwind noalias writable sret(%class.RichParameterList) align 8 %0, ptr noundef nonnull align 8 dereferenceable(80) %1, ptr noundef %2, ptr noundef nonnull align 8 dereferenceable(192) %3) unnamed_addr #5 align 2 personality ptr @__gxx_personality_v0 {
  %5 = alloca ptr, align 8
  %6 = alloca ptr, align 8
  %7 = alloca ptr, align 8
  %8 = alloca ptr, align 8
  %9 = alloca i1, align 1
  %10 = alloca ptr, align 8
  %11 = alloca i32, align 4
  store ptr %0, ptr %5, align 8
  store ptr %1, ptr %6, align 8
  store ptr %2, ptr %7, align 8
  store ptr %3, ptr %8, align 8
  %12 = load ptr, ptr %6, align 8
  store i1 false, ptr %9, align 1
  call void @_ZN17RichParameterListC1Ev(ptr noundef nonnull align 8 dereferenceable(24) %0)
  %13 = getelementptr inbounds i8, ptr %12, i64 16
  %14 = load ptr, ptr %7, align 8
  %15 = load ptr, ptr %13, align 8
  %16 = getelementptr inbounds ptr, ptr %15, i64 18
  %17 = load ptr, ptr %16, align 8
  %18 = invoke noundef i32 %17(ptr noundef nonnull align 8 dereferenceable(64) %13, ptr noundef %14)
          to label %19 unwind label %20

19:                                               ; preds = %4
  switch i32 %18, label %31 [
    i32 0, label %24
    i32 1, label %24
    i32 2, label %28
  ]

20:                                               ; preds = %28, %24, %4
  %21 = landingpad { ptr, i32 }
          cleanup
  %22 = extractvalue { ptr, i32 } %21, 0
  store ptr %22, ptr %10, align 8
  %23 = extractvalue { ptr, i32 } %21, 1
  store i32 %23, ptr %11, align 4
  call void @_ZN17RichParameterListD1Ev(ptr noundef nonnull align 8 dereferenceable(24) %0) #3
  br label %35

24:                                               ; preds = %19, %19
  %25 = load ptr, ptr %7, align 8
  %26 = load ptr, ptr %8, align 8
  invoke void @_ZN13FilterFractal38initParameterSetForFractalDisplacementEPK7QActionRK12MeshDocumentR17RichParameterList(ptr noundef nonnull align 8 dereferenceable(80) %12, ptr noundef %25, ptr noundef nonnull align 8 dereferenceable(192) %26, ptr noundef nonnull align 8 dereferenceable(24) %0)
          to label %27 unwind label %20

27:                                               ; preds = %24
  br label %31

28:                                               ; preds = %19
  %29 = load ptr, ptr %8, align 8
  invoke void @_ZN13FilterFractal36initParameterSetForCratersGenerationERK12MeshDocumentR17RichParameterList(ptr noundef nonnull align 8 dereferenceable(80) %12, ptr noundef nonnull align 8 dereferenceable(192) %29, ptr noundef nonnull align 8 dereferenceable(24) %0)
          to label %30 unwind label %20

30:                                               ; preds = %28
  br label %31

31:                                               ; preds = %30, %27, %19
  store i1 true, ptr %9, align 1
  %32 = load i1, ptr %9, align 1
  br i1 %32, label %34, label %33

33:                                               ; preds = %31
  call void @_ZN17RichParameterListD1Ev(ptr noundef nonnull align 8 dereferenceable(24) %0) #3
  br label %34

34:                                               ; preds = %33, %31
  ret void

35:                                               ; preds = %20
  %36 = load ptr, ptr %10, align 8
  %37 = load i32, ptr %11, align 4
  %38 = insertvalue { ptr, i32 } poison, ptr %36, 0
  %39 = insertvalue { ptr, i32 } %38, i32 %37, 1
  resume { ptr, i32 } %39
}

; Function Attrs: uwtable
define void @_ZThn16_N13FilterFractal17initParameterListEPK7QActionRK12MeshDocument(ptr dead_on_unwind noalias writable sret(%class.RichParameterList) align 8 %0, ptr noundef %1, ptr noundef %2, ptr noundef nonnull align 8 dereferenceable(192) %3) unnamed_addr #0 align 2 {
  %5 = alloca ptr, align 8
  %6 = alloca ptr, align 8
  %7 = alloca ptr, align 8
  %8 = alloca ptr, align 8
  store ptr %0, ptr %5, align 8
  store ptr %1, ptr %6, align 8
  store ptr %2, ptr %7, align 8
  store ptr %3, ptr %8, align 8
  %9 = load ptr, ptr %6, align 8
  %10 = getelementptr inbounds i8, ptr %9, i64 -16
  %11 = load ptr, ptr %7, align 8
  %12 = load ptr, ptr %8, align 8
  tail call void @_ZN13FilterFractal17initParameterListEPK7QActionRK12MeshDocument(ptr dead_on_unwind writable sret(%class.RichParameterList) align 8 %0, ptr noundef nonnull align 8 dereferenceable(80) %10, ptr noundef %11, ptr noundef nonnull align 8 dereferenceable(192) %12)
  ret void
}